; Function Attrs: mustprogress uwtable
define dso_local noundef nonnull ptr @_ZNK24FunctionInvocationBinary5cloneEv(ptr noundef nonnull align 8 dereferenceable(128) %0) unnamed_addr #4 align 2 personality ptr @__gxx_personality_v0 {
  %2 = tail call noalias noundef nonnull dereferenceable(128) ptr @_Znwm(i64 noundef 128) #16
  invoke void @_ZN18FunctionInvocationC2ERKS_(ptr noundef nonnull align 8 dereferenceable(56) %2, ptr noundef nonnull align 8 dereferenceable(56) %0)
          to label %.noexc unwind label %16

.noexc:                                           ; preds = %1
  store ptr getelementptr inbounds ({ [15 x ptr] }, ptr @_ZTV24FunctionInvocationBinary, i64 0, i32 0, i64 2), ptr %2, align 8
  %3 = getelementptr inbounds i8, ptr %2, i64 56
  %4 = getelementptr inbounds i8, ptr %0, i64 56
  %5 = load i32, ptr %4, align 8
  store i32 %5, ptr %3, align 8
  %6 = getelementptr inbounds i8, ptr %2, i64 64
  %7 = getelementptr inbounds i8, ptr %0, i64 64
  invoke void @_ZNSt7__cxx1112basic_stringIcSt11char_traitsIcESaIcEEC1ERKS4_(ptr noundef nonnull align 8 dereferenceable(32) %6, ptr noundef nonnull align 8 dereferenceable(32) %7)
          to label %8 unwind label %11

8:                                                ; preds = %.noexc
  %9 = getelementptr inbounds i8, ptr %2, i64 96
  %10 = getelementptr inbounds i8, ptr %0, i64 96
  invoke void @_ZNSt7__cxx1112basic_stringIcSt11char_traitsIcESaIcEEC1ERKS4_(ptr noundef nonnull align 8 dereferenceable(32) %9, ptr noundef nonnull align 8 dereferenceable(32) %10)
          to label %_ZN24FunctionInvocationBinaryC2ERKS_.exit unwind label %13

11:                                               ; preds = %.noexc
  %12 = landingpad { ptr, i32 }
          cleanup
  br label %15

13:                                               ; preds = %8
  %14 = landingpad { ptr, i32 }
          cleanup
  tail call void @_ZNSt7__cxx1112basic_stringIcSt11char_traitsIcESaIcEED1Ev(ptr noundef nonnull align 8 dereferenceable(32) %6) #15
  br label %15

15:                                               ; preds = %13, %11
  %.pn.i = phi { ptr, i32 } [ %14, %13 ], [ %12, %11 ]
  tail call void @_ZN18FunctionInvocationD2Ev(ptr noundef nonnull align 8 dereferenceable(56) %2) #15
  br label %.body

_ZN24FunctionInvocationBinaryC2ERKS_.exit:        ; preds = %8
  ret ptr %2

16:                                               ; preds = %1
  %17 = landingpad { ptr, i32 }
          cleanup
  br label %.body

.body:                                            ; preds = %15, %16
  %eh.lpad-body = phi { ptr, i32 } [ %17, %16 ], [ %.pn.i, %15 ]
  tail call void @_ZdlPv(ptr noundef nonnull %2) #14
  resume { ptr, i32 } %eh.lpad-body
}